target datalayout = "e-m:e-p270:32:32-p271:32:32-p272:64:64-i64:64-i128:128-f80:128-n8:16:32:64-S128"
target triple = "x86_64-pc-linux-gnu"

%struct.SDL_RenderViewState = type { i32, i32, %struct.SDL_Rect, %struct.SDL_Rect, %struct.SDL_Rect, %struct.SDL_Rect, i8, %struct.SDL_FPoint, i32, i32, i32, %struct.SDL_FRect, %struct.SDL_FRect, %struct.SDL_FPoint, %struct.SDL_FPoint, %struct.SDL_FPoint }
%struct.SDL_FRect = type { float, float, float, float }
%struct.SDL_FPoint = type { float, float }
%struct.SDL_FColor = type { float, float, float, float }
%struct.SDL_Rect = type { i32, i32, i32, i32 }
%struct.SDL_Texture = type { i32, i32, i32, i32, i32, float, float, i32, i32, i32, %struct.SDL_FColor, %struct.SDL_RenderViewState, ptr, ptr, ptr, ptr, i32, %struct.SDL_Rect, ptr, i32, i32, ptr, ptr, ptr }

; Function Attrs: nounwind uwtable
define internal zeroext i1 @SDL_UpdateTextureNVPlanar(ptr noundef %0, ptr noundef %1, ptr noundef %2, i32 noundef %3, ptr noundef %4, i32 noundef %5) #0 {
  %7 = alloca i1, align 1
  %8 = alloca ptr, align 8
  %9 = alloca ptr, align 8
  %10 = alloca ptr, align 8
  %11 = alloca i32, align 4
  %12 = alloca ptr, align 8
  %13 = alloca i32, align 4
  %14 = alloca ptr, align 8
  %15 = alloca %struct.SDL_Rect, align 4
  %16 = alloca i32, align 4
  %17 = alloca ptr, align 8
  %18 = alloca i32, align 4
  %19 = alloca i32, align 4
  %20 = alloca i64, align 8
  %21 = alloca ptr, align 8
  store ptr %0, ptr %8, align 8
  store ptr %1, ptr %9, align 8
  store ptr %2, ptr %10, align 8
  store i32 %3, ptr %11, align 4
  store ptr %4, ptr %12, align 8
  store i32 %5, ptr %13, align 4
  call void @llvm.lifetime.start.p0(i64 8, ptr %14) #10
  %22 = load ptr, ptr %8, align 8
  %23 = getelementptr inbounds nuw %struct.SDL_Texture, ptr %22, i32 0, i32 13
  %24 = load ptr, ptr %23, align 8
  store ptr %24, ptr %14, align 8
  call void @llvm.lifetime.start.p0(i64 16, ptr %15) #10
  %25 = load ptr, ptr %8, align 8
  %26 = getelementptr inbounds nuw %struct.SDL_Texture, ptr %25, i32 0, i32 14
  %27 = load ptr, ptr %26, align 8
  %28 = load ptr, ptr %9, align 8
  %29 = load ptr, ptr %10, align 8
  %30 = load i32, ptr %11, align 4
  %31 = load ptr, ptr %12, align 8
  %32 = load i32, ptr %13, align 4
  %33 = call zeroext i1 @SDL_SW_UpdateNVTexturePlanar(ptr noundef %27, ptr noundef %28, ptr noundef %29, i32 noundef %30, ptr noundef %31, i32 noundef %32)
  br i1 %33, label %35, label %34

34:                                               ; preds = %6
  store i1 false, ptr %7, align 1
  store i32 1, ptr %16, align 4
  br label %182

35:                                               ; preds = %6
  %36 = getelementptr inbounds nuw %struct.SDL_Rect, ptr %15, i32 0, i32 0
  store i32 0, ptr %36, align 4
  %37 = getelementptr inbounds nuw %struct.SDL_Rect, ptr %15, i32 0, i32 1
  store i32 0, ptr %37, align 4
  %38 = load ptr, ptr %8, align 8
  %39 = getelementptr inbounds nuw %struct.SDL_Texture, ptr %38, i32 0, i32 1
  %40 = load i32, ptr %39, align 4
  %41 = getelementptr inbounds nuw %struct.SDL_Rect, ptr %15, i32 0, i32 2
  store i32 %40, ptr %41, align 4
  %42 = load ptr, ptr %8, align 8
  %43 = getelementptr inbounds nuw %struct.SDL_Texture, ptr %42, i32 0, i32 2
  %44 = load i32, ptr %43, align 8
  %45 = getelementptr inbounds nuw %struct.SDL_Rect, ptr %15, i32 0, i32 3
  store i32 %44, ptr %45, align 4
  store ptr %15, ptr %9, align 8
  %46 = load ptr, ptr %9, align 8
  %47 = getelementptr inbounds nuw %struct.SDL_Rect, ptr %46, i32 0, i32 2
  %48 = load i32, ptr %47, align 4
  %49 = icmp ne i32 %48, 0
  br i1 %49, label %50, label %55

50:                                               ; preds = %35
  %51 = load ptr, ptr %9, align 8
  %52 = getelementptr inbounds nuw %struct.SDL_Rect, ptr %51, i32 0, i32 3
  %53 = load i32, ptr %52, align 4
  %54 = icmp ne i32 %53, 0
  br i1 %54, label %56, label %55

55:                                               ; preds = %50, %35
  store i1 true, ptr %7, align 1
  store i32 1, ptr %16, align 4
  br label %182

56:                                               ; preds = %50
  %57 = load ptr, ptr %8, align 8
  %58 = getelementptr inbounds nuw %struct.SDL_Texture, ptr %57, i32 0, i32 7
  %59 = load i32, ptr %58, align 4
  %60 = icmp eq i32 %59, 1
  br i1 %60, label %61, label %87

61:                                               ; preds = %56
  call void @llvm.lifetime.start.p0(i64 8, ptr %17) #10
  store ptr null, ptr %17, align 8
  call void @llvm.lifetime.start.p0(i64 4, ptr %18) #10
  store i32 0, ptr %18, align 4
  %62 = load ptr, ptr %14, align 8
  %63 = load ptr, ptr %9, align 8
  %64 = call zeroext i1 @SDL_LockTexture_REAL(ptr noundef %62, ptr noundef %63, ptr noundef %17, ptr noundef %18)
  br i1 %64, label %66, label %65

65:                                               ; preds = %61
  store i1 false, ptr %7, align 1
  store i32 1, ptr %16, align 4
  br label %84

66:                                               ; preds = %61
  %67 = load ptr, ptr %8, align 8
  %68 = getelementptr inbounds nuw %struct.SDL_Texture, ptr %67, i32 0, i32 14
  %69 = load ptr, ptr %68, align 8
  %70 = load ptr, ptr %9, align 8
  %71 = load ptr, ptr %14, align 8
  %72 = getelementptr inbounds nuw %struct.SDL_Texture, ptr %71, i32 0, i32 0
  %73 = load i32, ptr %72, align 8
  %74 = load ptr, ptr %9, align 8
  %75 = getelementptr inbounds nuw %struct.SDL_Rect, ptr %74, i32 0, i32 2
  %76 = load i32, ptr %75, align 4
  %77 = load ptr, ptr %9, align 8
  %78 = getelementptr inbounds nuw %struct.SDL_Rect, ptr %77, i32 0, i32 3
  %79 = load i32, ptr %78, align 4
  %80 = load ptr, ptr %17, align 8
  %81 = load i32, ptr %18, align 4
  %82 = call zeroext i1 @SDL_SW_CopyYUVToRGB(ptr noundef %69, ptr noundef %70, i32 noundef %73, i32 noundef %76, i32 noundef %79, ptr noundef %80, i32 noundef %81)
  %83 = load ptr, ptr %14, align 8
  call void @SDL_UnlockTexture_REAL(ptr noundef %83)
  store i32 0, ptr %16, align 4
  br label %84

84:                                               ; preds = %66, %65
  call void @llvm.lifetime.end.p0(i64 4, ptr %18) #10
  call void @llvm.lifetime.end.p0(i64 8, ptr %17) #10
  %85 = load i32, ptr %16, align 4
  switch i32 %85, label %182 [
    i32 0, label %86
  ]

86:                                               ; preds = %84
  br label %181

87:                                               ; preds = %56
  call void @llvm.lifetime.start.p0(i64 4, ptr %19) #10
  %88 = load ptr, ptr %9, align 8
  %89 = getelementptr inbounds nuw %struct.SDL_Rect, ptr %88, i32 0, i32 2
  %90 = load i32, ptr %89, align 4
  %91 = load ptr, ptr %14, align 8
  %92 = getelementptr inbounds nuw %struct.SDL_Texture, ptr %91, i32 0, i32 0
  %93 = load i32, ptr %92, align 8
  %94 = icmp ne i32 %93, 0
  br i1 %94, label %95, label %125

95:                                               ; preds = %87
  %96 = load ptr, ptr %14, align 8
  %97 = getelementptr inbounds nuw %struct.SDL_Texture, ptr %96, i32 0, i32 0
  %98 = load i32, ptr %97, align 8
  %99 = lshr i32 %98, 28
  %100 = and i32 %99, 15
  %101 = icmp ne i32 %100, 1
  br i1 %101, label %102, label %125

102:                                              ; preds = %95
  %103 = load ptr, ptr %14, align 8
  %104 = getelementptr inbounds nuw %struct.SDL_Texture, ptr %103, i32 0, i32 0
  %105 = load i32, ptr %104, align 8
  %106 = icmp eq i32 %105, 844715353
  br i1 %106, label %122, label %107

107:                                              ; preds = %102
  %108 = load ptr, ptr %14, align 8
  %109 = getelementptr inbounds nuw %struct.SDL_Texture, ptr %108, i32 0, i32 0
  %110 = load i32, ptr %109, align 8
  %111 = icmp eq i32 %110, 1498831189
  br i1 %111, label %122, label %112

112:                                              ; preds = %107
  %113 = load ptr, ptr %14, align 8
  %114 = getelementptr inbounds nuw %struct.SDL_Texture, ptr %113, i32 0, i32 0
  %115 = load i32, ptr %114, align 8
  %116 = icmp eq i32 %115, 1431918169
  br i1 %116, label %122, label %117

117:                                              ; preds = %112
  %118 = load ptr, ptr %14, align 8
  %119 = getelementptr inbounds nuw %struct.SDL_Texture, ptr %118, i32 0, i32 0
  %120 = load i32, ptr %119, align 8
  %121 = icmp eq i32 %120, 808530000
  br label %122

122:                                              ; preds = %117, %112, %107, %102
  %123 = phi i1 [ true, %112 ], [ true, %107 ], [ true, %102 ], [ %121, %117 ]
  %124 = select i1 %123, i32 2, i32 1
  br label %131

125:                                              ; preds = %95, %87
  %126 = load ptr, ptr %14, align 8
  %127 = getelementptr inbounds nuw %struct.SDL_Texture, ptr %126, i32 0, i32 0
  %128 = load i32, ptr %127, align 8
  %129 = lshr i32 %128, 0
  %130 = and i32 %129, 255
  br label %131

131:                                              ; preds = %125, %122
  %132 = phi i32 [ %124, %122 ], [ %130, %125 ]
  %133 = mul i32 %90, %132
  %134 = add i32 %133, 3
  %135 = and i32 %134, -4
  store i32 %135, ptr %19, align 4
  call void @llvm.lifetime.start.p0(i64 8, ptr %20) #10
  %136 = load ptr, ptr %9, align 8
  %137 = getelementptr inbounds nuw %struct.SDL_Rect, ptr %136, i32 0, i32 3
  %138 = load i32, ptr %137, align 4
  %139 = sext i32 %138 to i64
  %140 = load i32, ptr %19, align 4
  %141 = sext i32 %140 to i64
  %142 = mul i64 %139, %141
  store i64 %142, ptr %20, align 8
  %143 = load i64, ptr %20, align 8
  %144 = icmp ugt i64 %143, 0
  br i1 %144, label %145, label %177

145:                                              ; preds = %131
  call void @llvm.lifetime.start.p0(i64 8, ptr %21) #10
  %146 = load i64, ptr %20, align 8
  %147 = call noalias ptr @SDL_malloc_REAL(i64 noundef %146)
  store ptr %147, ptr %21, align 8
  %148 = load ptr, ptr %21, align 8
  %149 = icmp ne ptr %148, null
  br i1 %149, label %151, label %150

150:                                              ; preds = %145
  store i1 false, ptr %7, align 1
  store i32 1, ptr %16, align 4
  br label %174

151:                                              ; preds = %145
  %152 = load ptr, ptr %8, align 8
  %153 = getelementptr inbounds nuw %struct.SDL_Texture, ptr %152, i32 0, i32 14
  %154 = load ptr, ptr %153, align 8
  %155 = load ptr, ptr %9, align 8
  %156 = load ptr, ptr %14, align 8
  %157 = getelementptr inbounds nuw %struct.SDL_Texture, ptr %156, i32 0, i32 0
  %158 = load i32, ptr %157, align 8
  %159 = load ptr, ptr %9, align 8
  %160 = getelementptr inbounds nuw %struct.SDL_Rect, ptr %159, i32 0, i32 2
  %161 = load i32, ptr %160, align 4
  %162 = load ptr, ptr %9, align 8
  %163 = getelementptr inbounds nuw %struct.SDL_Rect, ptr %162, i32 0, i32 3
  %164 = load i32, ptr %163, align 4
  %165 = load ptr, ptr %21, align 8
  %166 = load i32, ptr %19, align 4
  %167 = call zeroext i1 @SDL_SW_CopyYUVToRGB(ptr noundef %154, ptr noundef %155, i32 noundef %158, i32 noundef %161, i32 noundef %164, ptr noundef %165, i32 noundef %166)
  %168 = load ptr, ptr %14, align 8
  %169 = load ptr, ptr %9, align 8
  %170 = load ptr, ptr %21, align 8
  %171 = load i32, ptr %19, align 4
  %172 = call zeroext i1 @SDL_UpdateTexture_REAL(ptr noundef %168, ptr noundef %169, ptr noundef %170, i32 noundef %171)
  %173 = load ptr, ptr %21, align 8
  call void @SDL_free_REAL(ptr noundef %173)
  store i32 0, ptr %16, align 4
  br label %174

174:                                              ; preds = %151, %150
  call void @llvm.lifetime.end.p0(i64 8, ptr %21) #10
  %175 = load i32, ptr %16, align 4
  switch i32 %175, label %178 [
    i32 0, label %176
  ]

176:                                              ; preds = %174
  br label %177

177:                                              ; preds = %176, %131
  store i32 0, ptr %16, align 4
  br label %178

178:                                              ; preds = %177, %174
  call void @llvm.lifetime.end.p0(i64 8, ptr %20) #10
  call void @llvm.lifetime.end.p0(i64 4, ptr %19) #10
  %179 = load i32, ptr %16, align 4
  switch i32 %179, label %182 [
    i32 0, label %180
  ]

180:                                              ; preds = %178
  br label %181

181:                                              ; preds = %180, %86
  store i1 true, ptr %7, align 1
  store i32 1, ptr %16, align 4
  br label %182

182:                                              ; preds = %181, %178, %84, %55, %34
  call void @llvm.lifetime.end.p0(i64 16, ptr %15) #10
  call void @llvm.lifetime.end.p0(i64 8, ptr %14) #10
  %183 = load i1, ptr %7, align 1
  ret i1 %183
}