; Function Attrs: nounwind uwtable
define internal fastcc noundef zeroext i1 @SDL_UpdateTextureNVPlanar(ptr noundef readonly captures(none) %0, ptr noundef nonnull %1, ptr noundef nonnull %2, i32 noundef range(i32 1, 0) %3, ptr noundef nonnull %4, i32 noundef range(i32 1, 0) %5) unnamed_addr #0 {
  %7 = alloca %struct.SDL_Rect, align 4
  %8 = alloca ptr, align 8
  %9 = alloca i32, align 4
  %10 = getelementptr inbounds nuw i8, ptr %0, i64 216
  %11 = load ptr, ptr %10, align 8
  call void @llvm.lifetime.start.p0(i64 16, ptr nonnull %7) #15
  %12 = getelementptr inbounds nuw i8, ptr %0, i64 224
  %13 = load ptr, ptr %12, align 8
  %14 = tail call zeroext i1 @SDL_SW_UpdateNVTexturePlanar(ptr noundef %13, ptr noundef nonnull %1, ptr noundef nonnull %2, i32 noundef %3, ptr noundef nonnull %4, i32 noundef %5) #15
  br i1 %14, label %15, label %.critedge64

15:                                               ; preds = %6
  store i32 0, ptr %7, align 4
  %16 = getelementptr inbounds nuw i8, ptr %7, i64 4
  store i32 0, ptr %16, align 4
  %17 = getelementptr inbounds nuw i8, ptr %0, i64 4
  %18 = load i32, ptr %17, align 4
  %19 = getelementptr inbounds nuw i8, ptr %7, i64 8
  store i32 %18, ptr %19, align 4
  %20 = getelementptr inbounds nuw i8, ptr %0, i64 8
  %21 = load i32, ptr %20, align 8
  %22 = getelementptr inbounds nuw i8, ptr %7, i64 12
  store i32 %21, ptr %22, align 4
  %.not = icmp eq i32 %18, 0
  %.not57 = icmp eq i32 %21, 0
  %or.cond = select i1 %.not, i1 true, i1 %.not57
  br i1 %or.cond, label %.critedge64, label %23

23:                                               ; preds = %15
  %24 = getelementptr inbounds nuw i8, ptr %0, i64 28
  %25 = load i32, ptr %24, align 4
  %26 = icmp eq i32 %25, 1
  br i1 %26, label %27, label %37

27:                                               ; preds = %23
  call void @llvm.lifetime.start.p0(i64 8, ptr nonnull %8) #15
  store ptr null, ptr %8, align 8
  call void @llvm.lifetime.start.p0(i64 4, ptr nonnull %9) #15
  store i32 0, ptr %9, align 4
  %28 = call zeroext i1 @SDL_LockTexture_REAL(ptr noundef %11, ptr noundef nonnull %7, ptr noundef nonnull %8, ptr noundef nonnull %9)
  br i1 %28, label %29, label %.critedge

29:                                               ; preds = %27
  %30 = load ptr, ptr %12, align 8
  %31 = load i32, ptr %11, align 8
  %32 = load i32, ptr %19, align 4
  %33 = load i32, ptr %22, align 4
  %34 = load ptr, ptr %8, align 8
  %35 = load i32, ptr %9, align 4
  %36 = call zeroext i1 @SDL_SW_CopyYUVToRGB(ptr noundef %30, ptr noundef nonnull %7, i32 noundef %31, i32 noundef %32, i32 noundef %33, ptr noundef %34, i32 noundef %35) #15
  call void @SDL_UnlockTexture_REAL(ptr noundef nonnull %11)
  call void @llvm.lifetime.end.p0(i64 4, ptr nonnull %9) #15
  call void @llvm.lifetime.end.p0(i64 8, ptr nonnull %8) #15
  br label %.critedge64

37:                                               ; preds = %23
  %38 = load i32, ptr %11, align 8
  %.not58 = icmp eq i32 %38, 0
  %.mask = and i32 %38, -268435456
  %.not59 = icmp eq i32 %.mask, 268435456
  %or.cond62 = or i1 %.not58, %.not59
  br i1 %or.cond62, label %43, label %39

39:                                               ; preds = %37
  switch i32 %38, label %40 [
    i32 844715353, label %45
    i32 1498831189, label %45
    i32 1431918169, label %45
  ]

40:                                               ; preds = %39
  %41 = icmp eq i32 %38, 808530000
  %42 = select i1 %41, i32 2, i32 1
  br label %45

43:                                               ; preds = %37
  %44 = and i32 %38, 255
  br label %45

45:                                               ; preds = %40, %39, %39, %39, %43
  %46 = phi i32 [ %44, %43 ], [ 2, %39 ], [ %42, %40 ], [ 2, %39 ], [ 2, %39 ]
  %47 = mul i32 %46, %18
  %48 = add i32 %47, 3
  %49 = and i32 %48, -4
  %50 = sext i32 %21 to i64
  %51 = sext i32 %49 to i64
  %52 = mul nsw i64 %51, %50
  %.not60 = icmp eq i64 %52, 0
  br i1 %.not60, label %.critedge64, label %53

53:                                               ; preds = %45
  %54 = tail call noalias ptr @SDL_malloc_REAL(i64 noundef %52) #15
  %.not61.not = icmp eq ptr %54, null
  br i1 %.not61.not, label %.critedge64, label %55

55:                                               ; preds = %53
  %56 = load ptr, ptr %12, align 8
  %57 = load i32, ptr %11, align 8
  %58 = call zeroext i1 @SDL_SW_CopyYUVToRGB(ptr noundef %56, ptr noundef nonnull %7, i32 noundef %57, i32 noundef %18, i32 noundef %21, ptr noundef nonnull %54, i32 noundef %49) #15
  %59 = call zeroext i1 @SDL_UpdateTexture_REAL(ptr noundef nonnull %11, ptr noundef nonnull %7, ptr noundef nonnull %54, i32 noundef %49)
  call void @SDL_free_REAL(ptr noundef nonnull %54) #15
  br label %.critedge64

.critedge:                                        ; preds = %27
  call void @llvm.lifetime.end.p0(i64 4, ptr nonnull %9) #15
  call void @llvm.lifetime.end.p0(i64 8, ptr nonnull %8) #15
  br label %.critedge64

.critedge64:                                      ; preds = %29, %55, %45, %53, %.critedge, %15, %6
  %.0 = phi i1 [ false, %6 ], [ true, %15 ], [ false, %.critedge ], [ false, %53 ], [ true, %45 ], [ true, %55 ], [ true, %29 ]
  call void @llvm.lifetime.end.p0(i64 16, ptr nonnull %7) #15
  ret i1 %.0
}